target datalayout = "e-m:e-p270:32:32-p271:32:32-p272:64:64-i64:64-i128:128-f80:128-n8:16:32:64-S128"
target triple = "x86_64-pc-linux-gnu"

; Function Attrs: alwaysinline nounwind willreturn memory(none) uwtable
define internal zeroext i16 @av_bswap16(i16 noundef zeroext %0) #3 {
  %2 = alloca i16, align 2
  store i16 %0, ptr %2, align 2, !tbaa !22
  %3 = load i16, ptr %2, align 2, !tbaa !22
  %4 = zext i16 %3 to i32
  %5 = ashr i32 %4, 8
  %6 = load i16, ptr %2, align 2, !tbaa !22
  %7 = zext i16 %6 to i32
  %8 = shl i32 %7, 8
  %9 = or i32 %5, %8
  %10 = trunc i32 %9 to i16
  store i16 %10, ptr %2, align 2, !tbaa !22
  %11 = load i16, ptr %2, align 2, !tbaa !22
  ret i16 %11
}

; Function Attrs: nounwind uwtable
define void @x2rgb10to48_bswap(ptr noundef %0, ptr noundef %1, i32 noundef %2) #0 {
  %4 = alloca ptr, align 8
  %5 = alloca ptr, align 8
  %6 = alloca i32, align 4
  %7 = alloca ptr, align 8
  %8 = alloca ptr, align 8
  %9 = alloca i32, align 4
  %10 = alloca i32, align 4
  %11 = alloca i32, align 4
  %12 = alloca i32, align 4
  store ptr %0, ptr %4, align 8, !tbaa !4
  store ptr %1, ptr %5, align 8, !tbaa !4
  store i32 %2, ptr %6, align 4, !tbaa !9
  call void @llvm.lifetime.start.p0(i64 8, ptr %7) #5
  %13 = load ptr, ptr %5, align 8, !tbaa !4
  store ptr %13, ptr %7, align 8, !tbaa !20
  call void @llvm.lifetime.start.p0(i64 8, ptr %8) #5
  %14 = load ptr, ptr %4, align 8, !tbaa !4
  store ptr %14, ptr %8, align 8, !tbaa !11
  call void @llvm.lifetime.start.p0(i64 4, ptr %9) #5
  call void @llvm.lifetime.start.p0(i64 4, ptr %10) #5
  %15 = load i32, ptr %6, align 4, !tbaa !9
  %16 = ashr i32 %15, 2
  store i32 %16, ptr %10, align 4, !tbaa !9
  call void @llvm.lifetime.start.p0(i64 4, ptr %11) #5
  store i32 0, ptr %9, align 4, !tbaa !9
  br label %17

17:                                               ; preds = %80, %3
  %18 = load i32, ptr %9, align 4, !tbaa !9
  %19 = load i32, ptr %10, align 4, !tbaa !9
  %20 = icmp slt i32 %18, %19
  br i1 %20, label %21, label %83

21:                                               ; preds = %17
  call void @llvm.lifetime.start.p0(i64 4, ptr %12) #5
  %22 = load ptr, ptr %8, align 8, !tbaa !11
  %23 = load i32, ptr %9, align 4, !tbaa !9
  %24 = sext i32 %23 to i64
  %25 = getelementptr inbounds i32, ptr %22, i64 %24
  %26 = load i32, ptr %25, align 1, !tbaa !13
  store i32 %26, ptr %12, align 4, !tbaa !9
  %27 = load i32, ptr %12, align 4, !tbaa !9
  %28 = lshr i32 %27, 20
  %29 = and i32 %28, 1023
  store i32 %29, ptr %11, align 4, !tbaa !9
  %30 = load i32, ptr %11, align 4, !tbaa !9
  %31 = shl i32 %30, 6
  %32 = load i32, ptr %11, align 4, !tbaa !9
  %33 = lshr i32 %32, 4
  %34 = or i32 %31, %33
  %35 = trunc i32 %34 to i16
  %36 = call zeroext i16 @av_bswap16(i16 noundef zeroext %35) #7
  %37 = zext i16 %36 to i32
  %38 = trunc i32 %37 to i16
  %39 = load ptr, ptr %7, align 8, !tbaa !20
  %40 = load i32, ptr %9, align 4, !tbaa !9
  %41 = mul nsw i32 3, %40
  %42 = add nsw i32 %41, 0
  %43 = sext i32 %42 to i64
  %44 = getelementptr inbounds i16, ptr %39, i64 %43
  store i16 %38, ptr %44, align 2, !tbaa !22
  %45 = load i32, ptr %12, align 4, !tbaa !9
  %46 = lshr i32 %45, 10
  %47 = and i32 %46, 1023
  store i32 %47, ptr %11, align 4, !tbaa !9
  %48 = load i32, ptr %11, align 4, !tbaa !9
  %49 = shl i32 %48, 6
  %50 = load i32, ptr %11, align 4, !tbaa !9
  %51 = lshr i32 %50, 4
  %52 = or i32 %49, %51
  %53 = trunc i32 %52 to i16
  %54 = call zeroext i16 @av_bswap16(i16 noundef zeroext %53) #7
  %55 = zext i16 %54 to i32
  %56 = trunc i32 %55 to i16
  %57 = load ptr, ptr %7, align 8, !tbaa !20
  %58 = load i32, ptr %9, align 4, !tbaa !9
  %59 = mul nsw i32 3, %58
  %60 = add nsw i32 %59, 1
  %61 = sext i32 %60 to i64
  %62 = getelementptr inbounds i16, ptr %57, i64 %61
  store i16 %56, ptr %62, align 2, !tbaa !22
  %63 = load i32, ptr %12, align 4, !tbaa !9
  %64 = and i32 %63, 1023
  store i32 %64, ptr %11, align 4, !tbaa !9
  %65 = load i32, ptr %11, align 4, !tbaa !9
  %66 = shl i32 %65, 6
  %67 = load i32, ptr %11, align 4, !tbaa !9
  %68 = lshr i32 %67, 4
  %69 = or i32 %66, %68
  %70 = trunc i32 %69 to i16
  %71 = call zeroext i16 @av_bswap16(i16 noundef zeroext %70) #7
  %72 = zext i16 %71 to i32
  %73 = trunc i32 %72 to i16
  %74 = load ptr, ptr %7, align 8, !tbaa !20
  %75 = load i32, ptr %9, align 4, !tbaa !9
  %76 = mul nsw i32 3, %75
  %77 = add nsw i32 %76, 2
  %78 = sext i32 %77 to i64
  %79 = getelementptr inbounds i16, ptr %74, i64 %78
  store i16 %73, ptr %79, align 2, !tbaa !22
  call void @llvm.lifetime.end.p0(i64 4, ptr %12) #5
  br label %80

80:                                               ; preds = %21
  %81 = load i32, ptr %9, align 4, !tbaa !9
  %82 = add nsw i32 %81, 1
  store i32 %82, ptr %9, align 4, !tbaa !9
  br label %17, !llvm.loop !45

83:                                               ; preds = %17
  call void @llvm.lifetime.end.p0(i64 4, ptr %11) #5
  call void @llvm.lifetime.end.p0(i64 4, ptr %10) #5
  call void @llvm.lifetime.end.p0(i64 4, ptr %9) #5
  call void @llvm.lifetime.end.p0(i64 8, ptr %8) #5
  call void @llvm.lifetime.end.p0(i64 8, ptr %7) #5
  ret void
}